; Function Attrs: nounwind uwtable
define i32 @ossl_dh_generate_ffc_parameters(ptr noundef %0, i32 noundef %1, i32 noundef %2, i32 noundef %3, ptr noundef %4) local_unnamed_addr #0 {
  %6 = alloca i32, align 4
  call void @llvm.lifetime.start.p0(i64 4, ptr nonnull %6) #5
  %7 = icmp eq i32 %1, 1
  %8 = getelementptr inbounds nuw i8, ptr %0, i64 176
  %9 = load ptr, ptr %8, align 8, !tbaa !3
  %10 = getelementptr inbounds nuw i8, ptr %0, i64 8
  %11 = sext i32 %2 to i64
  %12 = sext i32 %3 to i64
  br i1 %7, label %13, label %15

13:                                               ; preds = %5
  %14 = call i32 @ossl_ffc_params_FIPS186_2_generate(ptr noundef %9, ptr noundef nonnull %10, i32 noundef 1, i64 noundef %11, i64 noundef %12, ptr noundef nonnull %6, ptr noundef %4) #5
  br label %17

15:                                               ; preds = %5
  %16 = call i32 @ossl_ffc_params_FIPS186_4_generate(ptr noundef %9, ptr noundef nonnull %10, i32 noundef 1, i64 noundef %11, i64 noundef %12, ptr noundef nonnull %6, ptr noundef %4) #5
  br label %17

17:                                               ; preds = %15, %13
  %.0 = phi i32 [ %14, %13 ], [ %16, %15 ]
  %18 = icmp sgt i32 %.0, 0
  br i1 %18, label %19, label %23

19:                                               ; preds = %17
  %20 = getelementptr inbounds nuw i8, ptr %0, i64 200
  %21 = load i64, ptr %20, align 8, !tbaa !20
  %22 = add i64 %21, 1
  store i64 %22, ptr %20, align 8, !tbaa !20
  br label %23

23:                                               ; preds = %19, %17
  call void @llvm.lifetime.end.p0(i64 4, ptr nonnull %6) #5
  ret i32 %.0
}